; Function Attrs: nounwind uwtable
define void @lv_tabview_set_tab_bar_size(ptr noundef %0, i32 noundef %1) local_unnamed_addr #0 {
  %3 = tail call ptr @lv_obj_get_child(ptr noundef %0, i32 noundef 0) #5
  %4 = getelementptr inbounds nuw i8, ptr %0, i64 68
  %5 = load i32, ptr %4, align 4, !tbaa !3
  %6 = and i32 %5, 12
  %.not = icmp eq i32 %6, 0
  br i1 %.not, label %8, label %7

7:                                                ; preds = %2
  tail call void @lv_obj_set_height(ptr noundef %3, i32 noundef %1) #5
  br label %9

8:                                                ; preds = %2
  tail call void @lv_obj_set_width(ptr noundef %3, i32 noundef %1) #5
  br label %9

9:                                                ; preds = %8, %7
  ret void
}